; Function Attrs: mustprogress nofree norecurse nosync nounwind willreturn memory(argmem: readwrite) uwtable
define range(i32 -1, 1) i32 @pqSkipnchar(i64 noundef %0, ptr noundef captures(none) %1) local_unnamed_addr #6 {
  %3 = getelementptr inbounds nuw i8, ptr %1, i64 1020
  %4 = load i32, ptr %3, align 4
  %5 = getelementptr inbounds nuw i8, ptr %1, i64 1016
  %6 = load i32, ptr %5, align 8
  %7 = sub i32 %4, %6
  %8 = sext i32 %7 to i64
  %9 = icmp ugt i64 %0, %8
  br i1 %9, label %13, label %10

10:                                               ; preds = %2
  %11 = trunc i64 %0 to i32
  %12 = add i32 %6, %11
  store i32 %12, ptr %5, align 8
  br label %13

13:                                               ; preds = %2, %10
  %.0 = phi i32 [ 0, %10 ], [ -1, %2 ]
  ret i32 %.0
}